; Function Attrs: mustprogress nounwind uwtable
define void @_ZN8triggers8module_tD2Ev(ptr noundef nonnull readonly align 8 captures(none) dereferenceable(32) %0) unnamed_addr #6 align 2 personality ptr @__gxx_personality_v0 {
  %2 = getelementptr inbounds nuw i8, ptr %0, i64 8
  %3 = load ptr, ptr %2, align 8, !tbaa !210
  %4 = getelementptr inbounds nuw i8, ptr %0, i64 16
  %5 = load ptr, ptr %4, align 8, !tbaa !210
  %6 = icmp eq ptr %3, %5
  br i1 %6, label %._crit_edge, label %.lr.ph

._crit_edge.loopexit:                             ; preds = %20
  %.pre = load ptr, ptr %2, align 8, !tbaa !204
  br label %._crit_edge

._crit_edge:                                      ; preds = %._crit_edge.loopexit, %1
  %7 = phi ptr [ %.pre, %._crit_edge.loopexit ], [ %3, %1 ]
  %.not.i.i.i = icmp eq ptr %7, null
  br i1 %.not.i.i.i, label %_ZNSt6vectorIPN8triggers9trigger_tESaIS2_EED2Ev.exit, label %8

8:                                                ; preds = %._crit_edge
  %9 = getelementptr inbounds nuw i8, ptr %0, i64 24
  %10 = load ptr, ptr %9, align 8, !tbaa !205
  %11 = ptrtoint ptr %10 to i64
  %12 = ptrtoint ptr %7 to i64
  %13 = sub i64 %11, %12
  tail call void @_ZdlPvm(ptr noundef nonnull %7, i64 noundef %13) #24
  br label %_ZNSt6vectorIPN8triggers9trigger_tESaIS2_EED2Ev.exit

_ZNSt6vectorIPN8triggers9trigger_tESaIS2_EED2Ev.exit: ; preds = %._crit_edge, %8
  ret void

.lr.ph:                                           ; preds = %1, %20
  %.sroa.04.07 = phi ptr [ %21, %20 ], [ %3, %1 ]
  %14 = load ptr, ptr %.sroa.04.07, align 8, !tbaa !206
  %15 = icmp eq ptr %14, null
  br i1 %15, label %20, label %16

16:                                               ; preds = %.lr.ph
  %17 = load ptr, ptr %14, align 8, !tbaa !147
  %18 = getelementptr inbounds nuw i8, ptr %17, i64 8
  %19 = load ptr, ptr %18, align 8
  tail call void %19(ptr noundef nonnull align 8 dereferenceable(44) %14) #22
  br label %20

20:                                               ; preds = %16, %.lr.ph
  %21 = getelementptr inbounds nuw i8, ptr %.sroa.04.07, i64 8
  %22 = icmp eq ptr %21, %5
  br i1 %22, label %._crit_edge.loopexit, label %.lr.ph
}